(dp0
I1
(dp1
S'leftjaw'
p2
(lp3
I287
aI283
aI278
aI277
aI278
aI277
aI278
aI260
aI213
aI198
aI175
aI178
aI177
aI184
aI175
aI169
aI167
aI152
aI149
aI148
aI146
aI149
aI145
aI142
aI143
aI137
aI139
aI137
aI135
aI135
aI130
aI129
aI127
aI126
aI125
aI125
aI124
aI122
aI115
aI115
aI113
aI113
aI112
aI111
aI108
aI106
aI108
aI106
aI104
aI104
aI106
aI105
aI103
aI102
aI101
aI100
aI102
aI102
aI101
aI100
aI100
aI99
aI99
aI99
aI100
aI98
aI98
aI98
aI100
aI100
aI98
aI99
aI98
aI98
aI98
aI101
aI99
aI98
aI99
aI99
aI97
aI98
aI99
aI101
aI100
aI100
aI100
aI98
aI98
aI98
aI97
aI97
aI99
aI99
aI99
aI100
aI100
aI100
aI101
aI100
aI99
aI98
aI97
aI97
aI97
aI99
aI100
aI100
aI99
aI101
aI100
aI101
aI100
aI99
aI102
aI102
aI103
aI103
aI102
aI102
aI103
aI103
aI105
aI106
aI105
aI106
aI108
aI109
aI107
aI107
aI107
aI110
aI109
aI109
aI109
aI111
aI111
aI112
aI112
aI112
aI112
aI112
aI112
aI112
aI110
aI110
aI110
aI110
aI112
aI111
aI111
aI112
aI112
aI112
aI111
aI113
aI114
aI114
aI114
aI115
aI115
aI115
aI115
aI116
aI116
aI117
aI117
aI117
aI116
aI116
aI114
aI114
aI113
aI112
aI113
aI113
aI117
aI117
aI118
aI119
aI120
aI120
aI120
aI121
aI124
aI122
aI122
aI122
aI123
aI122
aI124
aI124
aI122
aI123
aI125
aI124
aI125
aI126
aI125
aI125
aI125
aI126
aI126
aI125
aI127
aI126
aI126
aI126
aI126
aI128
aI127
aI126
aI126
aI126
aI126
aI125
aI126
aI126
aI123
aI124
aI122
aI118
aI116
aI116
aI114
aI115
aI113
aI113
aI113
aI115
aI115
aI115
aI113
aI110
aI112
aI111
aI105
aI104
aI104
aI102
aI101
aI98
aI319
asS'rightjaw'
p4
(lp5
I126
aI10
aI44
aI45
aI45
aI46
aI46
aI47
aI85
aI134
aI162
aI164
aI193
aI195
aI198
aI199
aI202
aI227
aI230
aI231
aI233
aI234
aI236
aI235
aI235
aI235
aI238
aI234
aI236
aI238
aI240
aI239
aI241
aI242
aI243
aI246
aI247
aI246
aI247
aI248
aI249
aI250
aI252
aI252
aI255
aI255
aI256
aI257
aI258
aI258
aI260
aI260
aI261
aI262
aI264
aI263
aI264
aI264
aI264
aI265
aI265
aI265
aI266
aI266
aI266
aI267
aI267
aI267
aI268
aI267
aI268
aI267
aI269
aI269
aI268
aI267
aI268
aI268
aI269
aI269
aI270
aI270
aI270
aI270
aI270
aI270
aI270
aI269
aI270
aI270
aI269
aI270
aI270
aI270
aI273
aI273
aI271
aI271
aI271
aI271
aI271
aI271
aI271
aI271
aI270
aI270
aI270
aI270
aI270
aI270
aI270
aI270
aI273
aI273
aI273
aI272
aI270
aI273
aI269
aI269
aI269
aI268
aI268
aI268
aI267
aI267
aI266
aI266
aI266
aI266
aI264
aI264
aI264
aI264
aI264
aI264
aI262
aI261
aI259
aI259
aI264
aI264
aI256
aI256
aI255
aI256
aI257
aI257
aI257
aI257
aI257
aI256
aI257
aI256
aI256
aI255
aI255
aI255
aI255
aI255
aI254
aI253
aI254
aI253
aI253
aI253
aI253
aI253
aI251
aI251
aI250
aI250
aI250
aI249
aI248
aI248
aI245
aI244
aI248
aI249
aI246
aI246
aI247
aI246
aI246
aI244
aI243
aI243
aI243
aI243
aI242
aI243
aI242
aI242
aI241
aI241
aI240
aI240
aI239
aI239
aI240
aI238
aI238
aI238
aI241
aI242
aI250
aI242
aI240
aI240
aI240
aI241
aI239
aI239
aI239
aI239
aI238
aI238
aI238
aI238
aI238
aI239
aI238
aI237
aI238
aI238
aI238
aI238
aI239
aI240
aI240
aI240
aI241
aI242
aI244
aI244
aI247
aI247
aI249
aI250
aI250
aI251
aI0
assI2
(dp6
g2
(lp7
I319
aI319
aI319
aI319
aI319
aI319
aI319
aI319
aI250
aI215
aI174
aI173
aI170
aI169
aI166
aI165
aI165
aI165
aI163
aI162
aI158
aI157
aI155
aI154
aI152
aI151
aI148
aI147
aI145
aI145
aI144
aI143
aI142
aI142
aI141
aI141
aI139
aI138
aI137
aI136
aI135
aI135
aI135
aI135
aI132
aI132
aI131
aI132
aI131
aI130
aI129
aI128
aI127
aI126
aI125
aI125
aI124
aI124
aI123
aI123
aI124
aI124
aI122
aI122
aI121
aI121
aI120
aI120
aI120
aI120
aI119
aI119
aI119
aI119
aI119
aI119
aI118
aI118
aI117
aI117
aI118
aI118
aI117
aI117
aI116
aI116
aI115
aI114
aI114
aI114
aI114
aI115
aI114
aI113
aI114
aI114
aI115
aI115
aI114
aI113
aI113
aI113
aI114
aI114
aI114
aI114
aI115
aI115
aI116
aI116
aI116
aI116
aI117
aI117
aI118
aI118
aI117
aI118
aI118
aI119
aI121
aI121
aI120
aI120
aI121
aI121
aI120
aI119
aI118
aI118
aI118
aI119
aI117
aI116
aI117
aI117
aI117
aI117
aI118
aI117
aI117
aI116
aI117
aI118
aI119
aI120
aI118
aI118
aI120
aI119
aI118
aI118
aI121
aI120
aI120
aI119
aI118
aI118
aI121
aI120
aI121
aI118
aI124
aI125
aI123
aI122
aI120
aI122
aI129
aI128
aI128
aI131
aI136
aI139
aI138
aI138
aI138
aI137
aI139
aI139
aI140
aI140
aI139
aI139
aI140
aI137
aI136
aI138
aI138
aI141
aI142
aI142
aI142
aI142
aI141
aI142
aI144
aI144
aI144
aI144
aI145
aI145
aI146
aI147
aI147
aI147
aI147
aI147
aI148
aI148
aI149
aI148
aI146
aI146
aI145
aI147
aI144
aI145
aI144
aI144
aI142
aI143
aI138
aI137
aI142
aI142
aI143
aI144
aI144
aI143
aI143
aI142
aI142
aI142
aI142
aI141
aI143
aI143
aI142
aI142
aI142
aI142
aI319
asg4
(lp8
I126
aI0
aI0
aI0
aI0
aI0
aI0
aI0
aI52
aI124
aI211
aI214
aI217
aI218
aI219
aI220
aI223
aI225
aI232
aI231
aI237
aI238
aI239
aI240
aI241
aI242
aI244
aI244
aI245
aI245
aI246
aI246
aI246
aI246
aI247
aI247
aI248
aI248
aI251
aI252
aI255
aI256
aI258
aI258
aI259
aI259
aI261
aI261
aI262
aI262
aI262
aI262
aI263
aI264
aI265
aI265
aI266
aI266
aI268
aI269
aI270
aI270
aI271
aI271
aI272
aI272
aI273
aI273
aI274
aI274
aI275
aI275
aI274
aI274
aI275
aI278
aI275
aI275
aI275
aI274
aI273
aI274
aI274
aI274
aI275
aI275
aI274
aI274
aI275
aI275
aI275
aI274
aI274
aI275
aI276
aI275
aI275
aI276
aI275
aI275
aI274
aI275
aI275
aI275
aI277
aI275
aI274
aI274
aI273
aI273
aI274
aI275
aI273
aI271
aI271
aI271
aI272
aI271
aI272
aI271
aI268
aI269
aI272
aI273
aI272
aI272
aI272
aI273
aI274
aI272
aI270
aI270
aI275
aI286
aI281
aI281
aI280
aI281
aI272
aI272
aI282
aI284
aI298
aI299
aI282
aI283
aI286
aI275
aI279
aI295
aI301
aI301
aI285
aI281
aI290
aI288
aI297
aI297
aI293
aI293
aI270
aI269
aI278
aI272
aI273
aI276
aI267
aI267
aI269
aI265
aI285
aI289
aI261
aI259
aI255
aI255
aI270
aI279
aI251
aI251
aI252
aI251
aI260
aI258
aI248
aI246
aI255
aI259
aI249
aI245
aI245
aI245
aI247
aI257
aI276
aI250
aI247
aI248
aI243
aI244
aI245
aI245
aI241
aI240
aI242
aI241
aI240
aI241
aI240
aI241
aI245
aI242
aI259
aI243
aI240
aI240
aI242
aI242
aI250
aI256
aI244
aI247
aI246
aI247
aI247
aI247
aI248
aI247
aI250
aI250
aI251
aI249
aI250
aI252
aI252
aI252
aI250
aI250
aI252
aI253
aI250
aI250
aI0
assI3
(dp9
g2
(lp10
I319
aI319
aI319
aI319
aI319
aI319
aI319
aI319
aI319
aI319
aI319
aI285
aI283
aI283
aI283
aI284
aI285
aI285
aI286
aI286
aI288
aI288
aI294
aI294
aI247
aI204
aI225
aI138
aI132
aI133
aI127
aI127
aI129
aI127
aI126
aI126
aI124
aI123
aI121
aI121
aI119
aI118
aI111
aI109
aI105
aI104
aI102
aI102
aI100
aI100
aI99
aI99
aI99
aI98
aI97
aI96
aI95
aI94
aI94
aI95
aI95
aI94
aI92
aI94
aI91
aI91
aI92
aI90
aI89
aI90
aI89
aI89
aI88
aI88
aI88
aI88
aI87
aI88
aI88
aI87
aI87
aI87
aI88
aI87
aI87
aI86
aI86
aI87
aI87
aI89
aI89
aI90
aI89
aI89
aI89
aI89
aI89
aI89
aI88
aI89
aI89
aI89
aI88
aI88
aI88
aI87
aI87
aI87
aI87
aI88
aI88
aI88
aI91
aI91
aI90
aI90
aI90
aI89
aI91
aI91
aI90
aI90
aI89
aI88
aI90
aI90
aI90
aI89
aI89
aI89
aI89
aI90
aI90
aI90
aI91
aI91
aI92
aI93
aI93
aI93
aI92
aI92
aI94
aI95
aI95
aI95
aI96
aI95
aI96
aI96
aI98
aI97
aI96
aI96
aI97
aI97
aI97
aI97
aI98
aI98
aI99
aI100
aI101
aI101
aI101
aI101
aI103
aI102
aI104
aI105
aI106
aI106
aI108
aI108
aI109
aI109
aI110
aI111
aI112
aI111
aI111
aI111
aI112
aI112
aI112
aI112
aI113
aI113
aI113
aI113
aI112
aI112
aI112
aI112
aI113
aI113
aI114
aI114
aI114
aI115
aI115
aI116
aI117
aI117
aI116
aI116
aI118
aI118
aI117
aI117
aI116
aI116
aI115
aI113
aI111
aI110
aI110
aI109
aI109
aI109
aI108
aI108
aI108
aI108
aI107
aI107
aI104
aI102
aI100
aI100
aI97
aI96
aI93
aI92
aI89
aI87
aI85
aI84
aI81
aI80
aI78
aI77
aI319
asg4
(lp11
I126
aI0
aI0
aI0
aI0
aI0
aI0
aI1
aI2
aI2
aI6
aI4
aI7
aI7
aI9
aI9
aI14
aI14
aI14
aI14
aI15
aI15
aI16
aI16
aI58
aI78
aI114
aI117
aI171
aI192
aI214
aI215
aI219
aI220
aI223
aI224
aI226
aI226
aI229
aI229
aI231
aI231
aI232
aI233
aI234
aI234
aI234
aI234
aI234
aI233
aI232
aI233
aI234
aI234
aI235
aI236
aI236
aI238
aI235
aI236
aI238
aI238
aI241
aI242
aI242
aI241
aI242
aI242
aI244
aI245
aI246
aI246
aI245
aI244
aI246
aI246
aI247
aI247
aI250
aI250
aI249
aI250
aI250
aI251
aI250
aI250
aI250
aI250
aI251
aI251
aI250
aI250
aI250
aI250
aI250
aI251
aI250
aI250
aI251
aI251
aI252
aI253
aI253
aI254
aI254
aI254
aI254
aI254
aI255
aI254
aI256
aI256
aI256
aI256
aI255
aI255
aI254
aI254
aI254
aI254
aI253
aI253
aI253
aI253
aI252
aI252
aI252
aI252
aI252
aI253
aI251
aI251
aI251
aI251
aI250
aI249
aI249
aI249
aI249
aI249
aI248
aI247
aI247
aI246
aI246
aI247
aI245
aI245
aI246
aI245
aI245
aI245
aI244
aI244
aI243
aI243
aI243
aI242
aI243
aI243
aI242
aI242
aI241
aI241
aI239
aI238
aI237
aI237
aI237
aI237
aI236
aI235
aI232
aI231
aI230
aI231
aI229
aI229
aI228
aI229
aI228
aI228
aI226
aI225
aI227
aI226
aI227
aI226
aI225
aI225
aI225
aI226
aI226
aI226
aI225
aI224
aI224
aI224
aI223
aI223
aI223
aI223
aI224
aI223
aI222
aI224
aI223
aI222
aI223
aI223
aI224
aI226
aI226
aI226
aI228
aI228
aI227
aI227
aI227
aI228
aI228
aI229
aI230
aI230
aI229
aI228
aI229
aI229
aI234
aI237
aI240
aI241
aI243
aI245
aI249
aI250
aI254
aI255
aI262
aI262
aI269
aI269
aI0
assI4
(dp12
g2
(lp13
I319
aI319
aI319
aI319
aI319
aI319
aI319
aI319
aI319
aI319
aI319
aI319
aI319
aI271
aI220
aI183
aI173
aI171
aI166
aI165
aI161
aI160
aI157
aI156
aI153
aI153
aI150
aI150
aI148
aI147
aI145
aI144
aI143
aI142
aI140
aI140
aI138
aI138
aI137
aI136
aI135
aI134
aI133
aI132
aI131
aI131
aI130
aI129
aI128
aI128
aI127
aI126
aI125
aI125
aI124
aI124
aI123
aI122
aI121
aI121
aI120
aI120
aI119
aI119
aI118
aI118
aI117
aI117
aI116
aI116
aI115
aI115
aI115
aI115
aI114
aI114
aI113
aI113
aI113
aI112
aI112
aI112
aI111
aI111
aI111
aI110
aI110
aI110
aI110
aI110
aI110
aI110
aI110
aI110
aI110
aI110
aI110
aI110
aI110
aI110
aI110
aI110
aI110
aI110
aI111
aI111
aI111
aI111
aI112
aI111
aI111
aI112
aI112
aI112
aI112
aI112
aI112
aI112
aI112
aI112
aI111
aI111
aI111
aI111
aI111
aI111
aI111
aI111
aI112
aI112
aI113
aI112
aI113
aI113
aI113
aI114
aI111
aI111
aI114
aI114
aI115
aI115
aI115
aI115
aI116
aI116
aI117
aI117
aI118
aI118
aI120
aI120
aI120
aI120
aI117
aI121
aI122
aI122
aI123
aI124
aI126
aI126
aI126
aI126
aI125
aI125
aI127
aI128
aI128
aI128
aI123
aI124
aI125
aI128
aI128
aI129
aI131
aI131
aI131
aI131
aI128
aI128
aI130
aI130
aI129
aI129
aI130
aI132
aI134
aI134
aI134
aI132
aI129
aI133
aI132
aI130
aI128
aI128
aI132
aI130
aI125
aI125
aI123
aI120
aI116
aI115
aI115
aI111
aI110
aI111
aI115
aI115
aI113
aI113
aI112
aI113
aI113
aI113
aI113
aI113
aI113
aI113
aI107
aI109
aI110
aI113
aI111
aI109
aI104
aI108
aI105
aI104
aI104
aI104
aI101
aI100
aI97
aI94
aI93
aI92
aI91
aI90
aI319
asg4
(lp14
I126
aI0
aI0
aI0
aI0
aI0
aI0
aI0
aI0
aI0
aI0
aI0
aI0
aI0
aI103
aI202
aI206
aI207
aI208
aI209
aI210
aI215
aI221
aI230
aI234
aI234
aI237
aI238
aI240
aI240
aI242
aI242
aI244
aI244
aI246
aI247
aI248
aI248
aI250
aI251
aI252
aI252
aI254
aI255
aI257
aI257
aI258
aI258
aI260
aI260
aI261
aI261
aI263
aI263
aI264
aI264
aI265
aI265
aI266
aI266
aI267
aI266
aI266
aI266
aI267
aI267
aI268
aI268
aI267
aI268
aI269
aI267
aI267
aI267
aI268
aI267
aI267
aI267
aI267
aI267
aI267
aI267
aI267
aI267
aI267
aI267
aI267
aI267
aI267
aI267
aI267
aI267
aI267
aI267
aI267
aI267
aI268
aI268
aI267
aI267
aI267
aI267
aI267
aI266
aI265
aI266
aI266
aI266
aI265
aI265
aI263
aI263
aI262
aI261
aI262
aI262
aI262
aI261
aI261
aI265
aI263
aI263
aI266
aI263
aI266
aI264
aI261
aI261
aI261
aI261
aI261
aI261
aI261
aI262
aI261
aI261
aI261
aI261
aI262
aI262
aI262
aI261
aI258
aI258
aI258
aI258
aI257
aI257
aI258
aI257
aI256
aI255
aI256
aI256
aI255
aI253
aI253
aI256
aI253
aI252
aI250
aI249
aI249
aI249
aI250
aI249
aI247
aI248
aI248
aI252
aI248
aI247
aI246
aI245
aI261
aI266
aI244
aI243
aI244
aI244
aI242
aI244
aI249
aI241
aI242
aI241
aI242
aI242
aI242
aI238
aI237
aI237
aI240
aI240
aI250
aI250
aI234
aI234
aI237
aI239
aI235
aI234
aI245
aI245
aI234
aI234
aI253
aI253
aI238
aI241
aI245
aI247
aI260
aI249
aI247
aI247
aI255
aI253
aI248
aI250
aI252
aI255
aI255
aI251
aI279
aI279
aI267
aI296
aI257
aI258
aI257
aI256
aI286
aI286
aI264
aI263
aI264
aI264
aI279
aI281
aI270
aI271
aI0
assI5
(dp15
g2
(lp16
I294
aI319
aI319
aI319
aI319
aI319
aI319
aI319
aI284
aI283
aI283
aI283
aI285
aI285
aI285
aI286
aI287
aI287
aI289
aI289
aI290
aI290
aI253
aI198
aI156
aI155
aI152
aI151
aI148
aI147
aI145
aI145
aI142
aI142
aI140
aI140
aI138
aI138
aI136
aI132
aI130
aI128
aI129
aI126
aI127
aI127
aI124
aI124
aI123
aI123
aI120
aI119
aI120
aI120
aI120
aI119
aI117
aI117
aI114
aI115
aI114
aI115
aI112
aI112
aI113
aI112
aI109
aI109
aI110
aI110
aI110
aI108
aI107
aI106
aI109
aI109
aI109
aI109
aI107
aI107
aI110
aI108
aI105
aI105
aI108
aI108
aI108
aI108
aI109
aI107
aI106
aI106
aI108
aI108
aI107
aI107
aI107
aI109
aI107
aI109
aI108
aI110
aI109
aI110
aI111
aI112
aI110
aI111
aI109
aI111
aI111
aI112
aI112
aI113
aI112
aI110
aI112
aI113
aI113
aI114
aI112
aI112
aI111
aI110
aI107
aI110
aI107
aI108
aI108
aI108
aI109
aI109
aI108
aI108
aI109
aI109
aI109
aI109
aI108
aI110
aI108
aI108
aI110
aI109
aI109
aI108
aI110
aI108
aI110
aI110
aI109
aI111
aI112
aI111
aI112
aI111
aI110
aI112
aI112
aI112
aI113
aI113
aI115
aI114
aI114
aI114
aI114
aI114
aI116
aI114
aI115
aI116
aI121
aI120
aI122
aI121
aI125
aI124
aI124
aI125
aI126
aI126
aI126
aI126
aI128
aI128
aI129
aI128
aI125
aI126
aI130
aI128
aI128
aI129
aI129
aI129
aI129
aI127
aI127
aI130
aI128
aI129
aI127
aI127
aI126
aI125
aI126
aI126
aI128
aI127
aI125
aI124
aI124
aI123
aI125
aI126
aI127
aI127
aI125
aI123
aI125
aI127
aI126
aI126
aI126
aI126
aI127
aI127
aI130
aI130
aI128
aI128
aI131
aI131
aI131
aI131
aI59
aI125
aI79
aI77
aI131
aI133
aI319
asg4
(lp17
I126
aI8
aI10
aI0
aI4
aI4
aI4
aI1
aI8
aI8
aI9
aI11
aI11
aI11
aI11
aI11
aI10
aI10
aI12
aI12
aI13
aI13
aI46
aI113
aI186
aI191
aI198
aI200
aI204
aI205
aI210
aI212
aI215
aI216
aI219
aI220
aI223
aI224
aI227
aI228
aI231
aI232
aI234
aI235
aI237
aI237
aI238
aI239
aI241
aI241
aI242
aI242
aI242
aI242
aI243
aI243
aI246
aI246
aI248
aI249
aI251
aI251
aI253
aI254
aI254
aI255
aI256
aI257
aI258
aI258
aI258
aI258
aI259
aI259
aI261
aI261
aI262
aI262
aI262
aI262
aI263
aI263
aI264
aI264
aI265
aI265
aI266
aI266
aI266
aI266
aI267
aI267
aI267
aI267
aI267
aI267
aI267
aI267
aI267
aI267
aI267
aI267
aI267
aI266
aI266
aI266
aI266
aI266
aI266
aI266
aI266
aI266
aI266
aI266
aI265
aI265
aI265
aI265
aI264
aI264
aI264
aI264
aI266
aI266
aI267
aI268
aI269
aI269
aI270
aI270
aI270
aI271
aI271
aI271
aI271
aI271
aI271
aI272
aI271
aI271
aI271
aI271
aI270
aI271
aI270
aI270
aI268
aI268
aI268
aI267
aI268
aI269
aI268
aI268
aI266
aI266
aI265
aI265
aI265
aI265
aI264
aI264
aI263
aI262
aI262
aI262
aI261
aI261
aI260
aI260
aI259
aI259
aI258
aI257
aI256
aI255
aI255
aI252
aI246
aI246
aI246
aI246
aI244
aI244
aI243
aI243
aI243
aI243
aI243
aI243
aI242
aI242
aI248
aI261
aI241
aI241
aI241
aI241
aI242
aI242
aI243
aI243
aI243
aI243
aI244
aI244
aI245
aI245
aI246
aI246
aI247
aI247
aI248
aI248
aI249
aI249
aI249
aI250
aI250
aI250
aI251
aI251
aI252
aI252
aI252
aI253
aI253
aI254
aI254
aI254
aI253
aI253
aI254
aI253
aI253
aI253
aI253
aI254
aI258
aI252
aI255
aI259
aI0
assI6
(dp18
g2
(lp19
I319
aI319
aI319
aI319
aI319
aI319
aI319
aI319
aI319
aI319
aI294
aI295
aI293
aI265
aI187
aI159
aI127
aI125
aI93
aI90
aI85
aI83
aI77
aI76
aI73
aI72
aI69
aI68
aI64
aI63
aI61
aI60
aI58
aI57
aI56
aI55
aI54
aI53
aI51
aI50
aI49
aI49
aI48
aI48
aI47
aI47
aI46
aI45
aI44
aI43
aI42
aI40
aI40
aI39
aI39
aI34
aI33
aI33
aI33
aI33
aI32
aI32
aI31
aI31
aI31
aI31
aI32
aI31
aI31
aI30
aI30
aI30
aI30
aI30
aI29
aI29
aI29
aI29
aI29
aI29
aI30
aI30
aI28
aI26
aI28
aI28
aI27
aI27
aI27
aI27
aI27
aI28
aI27
aI26
aI27
aI27
aI27
aI27
aI27
aI27
aI26
aI25
aI24
aI26
aI26
aI26
aI26
aI26
aI25
aI25
aI25
aI25
aI25
aI26
aI25
aI25
aI26
aI26
aI26
aI26
aI26
aI26
aI26
aI26
aI26
aI27
aI26
aI25
aI27
aI27
aI26
aI26
aI27
aI26
aI27
aI27
aI27
aI26
aI27
aI27
aI28
aI28
aI27
aI29
aI30
aI30
aI28
aI26
aI28
aI29
aI30
aI28
aI29
aI25
aI31
aI28
aI29
aI26
aI31
aI35
aI35
aI32
aI33
aI34
aI33
aI37
aI37
aI31
aI27
aI29
aI39
aI38
aI40
aI38
aI41
aI41
aI36
aI45
aI48
aI49
aI54
aI54
aI54
aI55
aI56
aI55
aI55
aI57
aI58
aI58
aI58
aI57
aI35
aI44
aI61
aI61
aI63
aI62
aI65
aI62
aI48
aI66
aI66
aI67
aI59
aI68
aI69
aI70
aI69
aI70
aI71
aI70
aI71
aI71
aI71
aI70
aI71
aI71
aI54
aI69
aI66
aI66
aI66
aI65
aI61
aI62
aI60
aI60
aI59
aI59
aI55
aI56
aI50
aI49
aI49
aI49
aI48
aI48
aI49
aI49
aI47
aI47
aI319
asg4
(lp20
I126
aI0
aI0
aI0
aI0
aI0
aI0
aI0
aI0
aI0
aI0
aI17
aI18
aI32
aI100
aI118
aI138
aI138
aI155
aI157
aI159
aI160
aI163
aI164
aI166
aI166
aI168
aI168
aI168
aI166
aI160
aI153
aI160
aI155
aI157
aI160
aI164
aI170
aI171
aI172
aI174
aI175
aI178
aI179
aI183
aI184
aI182
aI183
aI183
aI186
aI189
aI189
aI192
aI190
aI188
aI190
aI191
aI191
aI191
aI192
aI192
aI193
aI194
aI199
aI199
aI199
aI196
aI196
aI197
aI198
aI199
aI199
aI200
aI201
aI201
aI202
aI202
aI202
aI206
aI205
aI204
aI204
aI205
aI205
aI206
aI206
aI206
aI206
aI207
aI207
aI207
aI207
aI208
aI208
aI209
aI209
aI209
aI209
aI208
aI210
aI210
aI210
aI209
aI209
aI209
aI209
aI209
aI209
aI208
aI209
aI208
aI207
aI208
aI208
aI207
aI206
aI206
aI206
aI206
aI206
aI205
aI205
aI206
aI209
aI205
aI205
aI205
aI205
aI204
aI204
aI204
aI204
aI203
aI203
aI204
aI201
aI202
aI202
aI202
aI201
aI203
aI203
aI205
aI204
aI205
aI204
aI202
aI202
aI201
aI201
aI202
aI202
aI200
aI200
aI199
aI198
aI201
aI204
aI204
aI204
aI208
aI208
aI202
aI209
aI196
aI194
aI193
aI192
aI201
aI209
aI193
aI192
aI194
aI193
aI200
aI192
aI212
aI212
aI210
aI214
aI218
aI219
aI197
aI180
aI183
aI198
aI181
aI182
aI188
aI195
aI210
aI197
aI218
aI224
aI224
aI223
aI176
aI175
aI175
aI176
aI229
aI226
aI211
aI208
aI178
aI178
aI196
aI221
aI183
aI190
aI176
aI176
aI182
aI182
aI243
aI241
aI233
aI233
aI246
aI244
aI182
aI185
aI182
aI183
aI181
aI218
aI184
aI193
aI199
aI182
aI186
aI201
aI198
aI187
aI189
aI190
aI197
aI203
aI190
aI188
aI188
aI219
aI0
assI7
(dp21
g2
(lp22
I319
aI319
aI319
aI319
aI319
aI319
aI319
aI319
aI319
aI319
aI300
aI299
aI298
aI297
aI297
aI297
aI276
aI276
aI246
aI245
aI223
aI220
aI198
aI167
aI142
aI141
aI135
aI137
aI134
aI134
aI128
aI127
aI123
aI123
aI121
aI121
aI119
aI118
aI117
aI116
aI115
aI114
aI113
aI112
aI112
aI111
aI110
aI110
aI108
aI108
aI107
aI107
aI106
aI106
aI104
aI104
aI102
aI102
aI101
aI100
aI98
aI98
aI98
aI97
aI96
aI95
aI94
aI94
aI93
aI93
aI92
aI92
aI92
aI92
aI91
aI91
aI90
aI90
aI90
aI90
aI89
aI89
aI89
aI89
aI88
aI88
aI88
aI88
aI88
aI88
aI88
aI88
aI88
aI88
aI88
aI89
aI89
aI89
aI89
aI90
aI90
aI90
aI90
aI90
aI90
aI90
aI90
aI90
aI90
aI90
aI90
aI90
aI90
aI90
aI90
aI90
aI90
aI90
aI90
aI90
aI90
aI90
aI90
aI91
aI91
aI91
aI91
aI91
aI90
aI90
aI90
aI90
aI90
aI90
aI90
aI90
aI90
aI90
aI90
aI90
aI91
aI91
aI91
aI91
aI91
aI92
aI92
aI92
aI92
aI92
aI93
aI93
aI93
aI93
aI93
aI93
aI93
aI94
aI94
aI94
aI95
aI95
aI96
aI96
aI97
aI98
aI98
aI98
aI99
aI99
aI100
aI100
aI102
aI102
aI104
aI103
aI104
aI104
aI105
aI105
aI105
aI105
aI106
aI106
aI107
aI107
aI107
aI107
aI108
aI108
aI109
aI109
aI110
aI110
aI111
aI111
aI112
aI112
aI113
aI113
aI113
aI113
aI114
aI114
aI115
aI115
aI116
aI116
aI116
aI116
aI116
aI116
aI117
aI117
aI117
aI117
aI117
aI117
aI117
aI117
aI116
aI116
aI116
aI116
aI115
aI114
aI114
aI113
aI110
aI109
aI107
aI106
aI104
aI102
aI97
aI96
aI91
aI90
aI86
aI83
aI80
aI77
aI319
asg4
(lp23
I126
aI0
aI0
aI0
aI0
aI0
aI0
aI0
aI0
aI0
aI0
aI23
aI24
aI23
aI24
aI26
aI46
aI81
aI83
aI104
aI129
aI130
aI132
aI174
aI198
aI198
aI201
aI201
aI203
aI204
aI208
aI209
aI211
aI212
aI214
aI217
aI215
aI216
aI217
aI218
aI219
aI219
aI225
aI226
aI224
aI225
aI226
aI227
aI230
aI231
aI231
aI231
aI232
aI234
aI235
aI236
aI235
aI236
aI238
aI238
aI237
aI238
aI239
aI239
aI240
aI240
aI242
aI242
aI242
aI242
aI244
aI242
aI242
aI240
aI242
aI243
aI242
aI240
aI241
aI240
aI241
aI241
aI241
aI241
aI240
aI240
aI241
aI242
aI243
aI244
aI245
aI245
aI244
aI244
aI244
aI244
aI244
aI244
aI245
aI245
aI244
aI244
aI244
aI245
aI243
aI243
aI245
aI245
aI242
aI246
aI244
aI244
aI244
aI245
aI243
aI243
aI243
aI243
aI243
aI244
aI243
aI243
aI241
aI241
aI242
aI242
aI241
aI243
aI243
aI242
aI243
aI242
aI243
aI242
aI241
aI240
aI241
aI240
aI242
aI242
aI241
aI240
aI240
aI240
aI238
aI238
aI240
aI240
aI240
aI240
aI240
aI240
aI239
aI240
aI240
aI239
aI240
aI239
aI239
aI239
aI238
aI239
aI237
aI237
aI235
aI235
aI235
aI233
aI234
aI234
aI232
aI231
aI231
aI233
aI231
aI231
aI229
aI229
aI229
aI228
aI229
aI229
aI228
aI228
aI228
aI228
aI228
aI227
aI227
aI226
aI225
aI225
aI225
aI225
aI225
aI225
aI225
aI224
aI222
aI221
aI222
aI221
aI220
aI221
aI221
aI220
aI221
aI220
aI219
aI219
aI220
aI219
aI219
aI219
aI220
aI219
aI219
aI220
aI222
aI222
aI224
aI224
aI226
aI226
aI228
aI229
aI230
aI231
aI237
aI238
aI241
aI242
aI246
aI247
aI257
aI259
aI264
aI266
aI273
aI275
aI283
aI285
aI0
assI8
(dp24
g2
(lp25
I319
aI319
aI319
aI319
aI319
aI319
aI319
aI319
aI319
aI317
aI313
aI312
aI298
aI297
aI296
aI256
aI252
aI232
aI193
aI192
aI167
aI166
aI163
aI162
aI160
aI159
aI115
aI114
aI112
aI111
aI109
aI108
aI106
aI106
aI104
aI104
aI110
aI102
aI100
aI99
aI98
aI97
aI96
aI96
aI95
aI95
aI94
aI94
aI93
aI93
aI92
aI92
aI91
aI91
aI91
aI90
aI90
aI90
aI89
aI89
aI88
aI88
aI91
aI88
aI87
aI87
aI87
aI86
aI89
aI88
aI88
aI86
aI86
aI86
aI85
aI85
aI85
aI85
aI85
aI85
aI84
aI84
aI84
aI84
aI85
aI85
aI85
aI85
aI85
aI85
aI84
aI83
aI80
aI83
aI83
aI82
aI82
aI83
aI84
aI82
aI82
aI82
aI82
aI82
aI82
aI83
aI83
aI83
aI83
aI83
aI83
aI84
aI81
aI85
aI84
aI84
aI85
aI85
aI85
aI85
aI86
aI87
aI84
aI84
aI85
aI89
aI89
aI89
aI90
aI90
aI91
aI89
aI90
aI90
aI91
aI92
aI93
aI94
aI92
aI93
aI93
aI94
aI94
aI94
aI95
aI95
aI96
aI96
aI100
aI98
aI98
aI99
aI99
aI99
aI99
aI100
aI100
aI97
aI105
aI105
aI101
aI100
aI101
aI101
aI101
aI101
aI102
aI102
aI102
aI102
aI101
aI102
aI102
aI103
aI103
aI103
aI102
aI104
aI102
aI103
aI104
aI104
aI104
aI105
aI104
aI104
aI103
aI105
aI107
aI108
aI109
aI110
aI110
aI110
aI110
aI112
aI111
aI112
aI110
aI111
aI113
aI112
aI109
aI103
aI110
aI109
aI107
aI109
aI106
aI107
aI106
aI106
aI104
aI106
aI104
aI103
aI102
aI100
aI99
aI100
aI100
aI100
aI94
aI98
aI95
aI95
aI95
aI95
aI91
aI90
aI91
aI90
aI88
aI87
aI82
aI82
aI77
aI75
aI72
aI71
aI66
aI65
aI319
asg4
(lp26
I126
aI0
aI0
aI0
aI0
aI0
aI0
aI0
aI0
aI0
aI36
aI37
aI35
aI36
aI35
aI56
aI79
aI100
aI102
aI124
aI144
aI146
aI149
aI150
aI155
aI155
aI201
aI202
aI204
aI204
aI208
aI209
aI212
aI212
aI213
aI214
aI217
aI218
aI219
aI220
aI223
aI222
aI226
aI224
aI226
aI226
aI228
aI229
aI229
aI230
aI231
aI231
aI233
aI232
aI234
aI234
aI235
aI235
aI236
aI237
aI237
aI238
aI239
aI239
aI240
aI240
aI241
aI241
aI241
aI242
aI242
aI243
aI243
aI243
aI244
aI244
aI244
aI244
aI244
aI245
aI245
aI245
aI245
aI245
aI246
aI246
aI246
aI246
aI246
aI246
aI247
aI247
aI247
aI247
aI248
aI248
aI248
aI248
aI248
aI248
aI248
aI248
aI248
aI249
aI248
aI248
aI248
aI249
aI248
aI248
aI248
aI248
aI247
aI247
aI247
aI247
aI247
aI247
aI246
aI246
aI246
aI246
aI246
aI246
aI245
aI245
aI245
aI244
aI244
aI244
aI244
aI243
aI243
aI242
aI242
aI242
aI241
aI241
aI243
aI242
aI239
aI238
aI237
aI237
aI235
aI235
aI234
aI233
aI232
aI233
aI229
aI230
aI228
aI228
aI227
aI226
aI225
aI225
aI225
aI226
aI225
aI223
aI222
aI222
aI223
aI222
aI223
aI223
aI223
aI223
aI223
aI223
aI222
aI222
aI221
aI221
aI223
aI222
aI218
aI222
aI222
aI234
aI221
aI221
aI220
aI220
aI219
aI219
aI219
aI218
aI218
aI218
aI217
aI217
aI217
aI219
aI218
aI241
aI215
aI216
aI215
aI215
aI221
aI220
aI214
aI214
aI215
aI215
aI216
aI217
aI237
aI218
aI219
aI220
aI221
aI221
aI227
aI224
aI225
aI226
aI226
aI227
aI226
aI226
aI227
aI228
aI230
aI231
aI232
aI232
aI236
aI236
aI237
aI244
aI240
aI242
aI243
aI243
aI245
aI246
aI247
aI250
aI0
assI9
(dp27
g2
(lp28
I319
aI319
aI319
aI319
aI319
aI319
aI319
aI319
aI319
aI319
aI319
aI319
aI319
aI319
aI319
aI319
aI319
aI319
aI282
aI282
aI282
aI283
aI266
aI245
aI179
aI210
aI130
aI141
aI137
aI136
aI133
aI132
aI119
aI127
aI124
aI123
aI120
aI119
aI117
aI116
aI113
aI112
aI111
aI110
aI102
aI101
aI102
aI101
aI100
aI99
aI97
aI97
aI95
aI94
aI93
aI93
aI93
aI93
aI91
aI90
aI92
aI92
aI89
aI87
aI90
aI91
aI86
aI86
aI85
aI85
aI85
aI84
aI83
aI84
aI84
aI84
aI86
aI85
aI84
aI84
aI84
aI83
aI80
aI80
aI80
aI80
aI83
aI80
aI79
aI79
aI81
aI81
aI81
aI81
aI81
aI81
aI81
aI81
aI79
aI79
aI81
aI80
aI79
aI80
aI78
aI79
aI83
aI80
aI81
aI81
aI79
aI79
aI80
aI80
aI83
aI83
aI83
aI84
aI84
aI85
aI85
aI87
aI84
aI84
aI83
aI84
aI86
aI82
aI81
aI83
aI82
aI82
aI82
aI82
aI84
aI84
aI82
aI83
aI83
aI83
aI84
aI86
aI87
aI86
aI84
aI86
aI86
aI86
aI87
aI87
aI85
aI85
aI88
aI88
aI90
aI89
aI88
aI88
aI88
aI88
aI92
aI92
aI92
aI90
aI87
aI87
aI88
aI88
aI89
aI89
aI94
aI96
aI100
aI102
aI103
aI101
aI101
aI101
aI101
aI102
aI103
aI104
aI105
aI106
aI103
aI102
aI102
aI103
aI107
aI106
aI106
aI106
aI106
aI106
aI102
aI103
aI107
aI107
aI105
aI105
aI107
aI106
aI98
aI97
aI105
aI110
aI109
aI109
aI106
aI107
aI105
aI102
aI109
aI110
aI71
aI75
aI92
aI86
aI106
aI106
aI107
aI105
aI100
aI98
aI99
aI99
aI100
aI102
aI102
aI100
aI83
aI104
aI99
aI102
aI103
aI95
aI86
aI82
aI81
aI79
aI77
aI77
aI319
asg4
(lp29
I126
aI0
aI0
aI0
aI0
aI0
aI0
aI0
aI0
aI0
aI0
aI0
aI0
aI0
aI0
aI1
aI2
aI2
aI3
aI4
aI4
aI4
aI5
aI48
aI91
aI112
aI171
aI172
aI176
aI177
aI181
aI183
aI185
aI186
aI189
aI190
aI192
aI193
aI195
aI196
aI198
aI198
aI200
aI200
aI201
aI202
aI204
aI204
aI206
aI206
aI207
aI208
aI210
aI210
aI211
aI211
aI212
aI213
aI214
aI215
aI215
aI216
aI217
aI217
aI218
aI218
aI219
aI219
aI220
aI220
aI221
aI221
aI222
aI222
aI222
aI223
aI223
aI223
aI224
aI224
aI224
aI224
aI224
aI225
aI225
aI226
aI226
aI226
aI227
aI227
aI228
aI228
aI229
aI229
aI230
aI230
aI231
aI231
aI231
aI232
aI232
aI232
aI232
aI232
aI232
aI233
aI233
aI233
aI232
aI232
aI232
aI231
aI230
aI230
aI231
aI230
aI232
aI232
aI232
aI231
aI230
aI230
aI230
aI230
aI230
aI230
aI230
aI230
aI231
aI231
aI230
aI231
aI231
aI230
aI230
aI230
aI230
aI230
aI230
aI229
aI229
aI229
aI229
aI229
aI229
aI229
aI229
aI229
aI229
aI229
aI229
aI229
aI229
aI229
aI228
aI229
aI228
aI228
aI227
aI227
aI227
aI227
aI223
aI222
aI218
aI218
aI218
aI217
aI215
aI215
aI216
aI215
aI214
aI213
aI213
aI214
aI216
aI216
aI219
aI216
aI238
aI239
aI218
aI224
aI217
aI221
aI219
aI219
aI219
aI218
aI221
aI223
aI222
aI221
aI223
aI224
aI239
aI248
aI229
aI236
aI229
aI230
aI231
aI233
aI233
aI234
aI234
aI236
aI238
aI235
aI242
aI240
aI242
aI236
aI233
aI252
aI245
aI264
aI245
aI245
aI246
aI252
aI248
aI247
aI250
aI251
aI249
aI253
aI256
aI257
aI252
aI247
aI251
aI254
aI256
aI253
aI254
aI258
aI255
aI260
aI252
aI256
aI0
assI10
(dp30
g2
(lp31
I319
aI319
aI319
aI319
aI319
aI319
aI318
aI318
aI319
aI319
aI314
aI312
aI313
aI312
aI208
aI195
aI170
aI168
aI163
aI142
aI138
aI137
aI134
aI133
aI130
aI129
aI127
aI126
aI125
aI124
aI122
aI121
aI119
aI118
aI116
aI116
aI114
aI113
aI112
aI111
aI109
aI109
aI108
aI107
aI106
aI106
aI106
aI105
aI105
aI105
aI105
aI105
aI104
aI104
aI103
aI103
aI102
aI102
aI101
aI101
aI100
aI99
aI98
aI98
aI96
aI96
aI94
aI93
aI91
aI91
aI91
aI91
aI91
aI90
aI90
aI90
aI90
aI90
aI89
aI89
aI89
aI89
aI89
aI89
aI89
aI89
aI89
aI89
aI89
aI89
aI89
aI89
aI89
aI88
aI88
aI88
aI88
aI89
aI89
aI89
aI89
aI89
aI89
aI89
aI89
aI89
aI89
aI89
aI89
aI89
aI89
aI89
aI89
aI89
aI89
aI89
aI89
aI89
aI89
aI89
aI90
aI90
aI91
aI91
aI92
aI92
aI93
aI93
aI94
aI94
aI95
aI96
aI97
aI97
aI97
aI98
aI98
aI99
aI99
aI100
aI100
aI101
aI101
aI102
aI103
aI103
aI104
aI105
aI106
aI106
aI107
aI107
aI108
aI108
aI108
aI108
aI109
aI109
aI110
aI110
aI110
aI111
aI110
aI110
aI110
aI110
aI110
aI110
aI110
aI110
aI111
aI112
aI115
aI115
aI116
aI116
aI116
aI117
aI118
aI118
aI118
aI119
aI119
aI119
aI120
aI120
aI121
aI121
aI121
aI121
aI122
aI123
aI125
aI125
aI125
aI125
aI128
aI127
aI128
aI129
aI130
aI131
aI133
aI133
aI133
aI133
aI134
aI133
aI133
aI133
aI132
aI131
aI130
aI129
aI126
aI127
aI126
aI126
aI124
aI124
aI123
aI122
aI121
aI120
aI117
aI115
aI112
aI111
aI105
aI104
aI93
aI91
aI85
aI81
aI75
aI74
aI71
aI70
aI64
aI62
aI57
aI55
aI319
asg4
(lp32
I126
aI0
aI0
aI0
aI0
aI0
aI0
aI0
aI0
aI0
aI0
aI36
aI35
aI35
aI141
aI143
aI171
aI165
aI171
aI174
aI206
aI207
aI209
aI210
aI213
aI213
aI215
aI215
aI217
aI217
aI218
aI218
aI218
aI220
aI223
aI224
aI230
aI231
aI233
aI236
aI234
aI235
aI236
aI236
aI238
aI239
aI241
aI242
aI244
aI245
aI245
aI246
aI247
aI247
aI249
aI249
aI250
aI251
aI252
aI252
aI253
aI254
aI255
aI255
aI256
aI256
aI256
aI257
aI257
aI257
aI258
aI258
aI259
aI259
aI259
aI260
aI260
aI260
aI260
aI260
aI261
aI262
aI262
aI262
aI261
aI261
aI261
aI261
aI261
aI261
aI261
aI261
aI262
aI262
aI262
aI261
aI261
aI261
aI261
aI261
aI261
aI261
aI260
aI260
aI260
aI260
aI259
aI259
aI259
aI259
aI259
aI259
aI258
aI258
aI258
aI258
aI258
aI258
aI257
aI257
aI256
aI256
aI256
aI256
aI256
aI256
aI256
aI256
aI255
aI255
aI255
aI255
aI254
aI254
aI253
aI253
aI252
aI252
aI251
aI251
aI250
aI250
aI249
aI249
aI249
aI248
aI248
aI248
aI248
aI248
aI247
aI247
aI247
aI247
aI247
aI247
aI247
aI246
aI247
aI247
aI247
aI247
aI246
aI246
aI245
aI245
aI244
aI244
aI242
aI242
aI240
aI240
aI240
aI239
aI239
aI238
aI237
aI237
aI237
aI237
aI236
aI236
aI235
aI235
aI234
aI234
aI233
aI233
aI232
aI232
aI230
aI230
aI230
aI229
aI229
aI229
aI229
aI227
aI229
aI229
aI228
aI228
aI228
aI229
aI229
aI229
aI230
aI228
aI229
aI231
aI231
aI231
aI233
aI233
aI234
aI234
aI235
aI236
aI237
aI238
aI239
aI239
aI241
aI241
aI242
aI243
aI245
aI245
aI245
aI246
aI247
aI248
aI250
aI250
aI254
aI253
aI257
aI258
aI266
aI267
aI274
aI275
aI0
assI11
(dp33
g2
(lp34
I319
aI319
aI319
aI319
aI303
aI304
aI300
aI300
aI299
aI299
aI279
aI279
aI275
aI265
aI227
aI206
aI187
aI182
aI176
aI175
aI172
aI152
aI149
aI148
aI145
aI144
aI142
aI140
aI139
aI138
aI136
aI135
aI133
aI133
aI131
aI131
aI129
aI128
aI127
aI126
aI125
aI125
aI123
aI123
aI122
aI121
aI120
aI119
aI118
aI118
aI117
aI117
aI116
aI116
aI115
aI114
aI113
aI113
aI112
aI112
aI111
aI111
aI110
aI110
aI109
aI109
aI109
aI108
aI107
aI107
aI107
aI106
aI106
aI106
aI105
aI105
aI104
aI104
aI103
aI103
aI103
aI102
aI102
aI102
aI101
aI101
aI101
aI101
aI100
aI100
aI99
aI99
aI99
aI99
aI98
aI98
aI97
aI97
aI97
aI96
aI96
aI96
aI95
aI95
aI95
aI95
aI94
aI94
aI94
aI93
aI93
aI93
aI93
aI92
aI92
aI92
aI92
aI92
aI92
aI92
aI91
aI91
aI91
aI91
aI91
aI91
aI91
aI90
aI90
aI90
aI90
aI90
aI90
aI90
aI89
aI89
aI89
aI89
aI89
aI89
aI89
aI89
aI89
aI89
aI89
aI89
aI89
aI89
aI89
aI89
aI89
aI89
aI89
aI89
aI89
aI89
aI89
aI89
aI89
aI89
aI90
aI90
aI90
aI90
aI90
aI90
aI90
aI91
aI91
aI91
aI91
aI92
aI92
aI92
aI92
aI93
aI93
aI93
aI94
aI94
aI94
aI94
aI95
aI95
aI96
aI96
aI96
aI97
aI97
aI97
aI98
aI98
aI98
aI100
aI101
aI102
aI103
aI104
aI107
aI108
aI110
aI110
aI113
aI114
aI118
aI120
aI126
aI127
aI128
aI128
aI129
aI129
aI130
aI130
aI130
aI130
aI130
aI130
aI127
aI126
aI124
aI123
aI120
aI119
aI116
aI115
aI113
aI112
aI110
aI109
aI107
aI107
aI104
aI99
aI81
aI72
aI102
aI99
aI95
aI95
aI96
aI94
aI319
asg4
(lp35
I126
aI0
aI0
aI0
aI0
aI27
aI27
aI27
aI28
aI28
aI53
aI92
aI93
aI93
aI143
aI143
aI196
aI197
aI199
aI200
aI202
aI228
aI230
aI231
aI232
aI233
aI235
aI235
aI236
aI237
aI238
aI239
aI240
aI240
aI241
aI242
aI243
aI243
aI244
aI245
aI245
aI246
aI247
aI247
aI249
aI249
aI249
aI250
aI250
aI250
aI250
aI251
aI252
aI252
aI253
aI254
aI255
aI255
aI256
aI256
aI257
aI257
aI258
aI258
aI259
aI259
aI260
aI260
aI261
aI261
aI262
aI262
aI263
aI263
aI264
aI264
aI265
aI265
aI266
aI266
aI267
aI267
aI268
aI268
aI269
aI269
aI270
aI270
aI271
aI271
aI272
aI272
aI273
aI273
aI273
aI274
aI274
aI274
aI275
aI275
aI276
aI276
aI276
aI277
aI277
aI277
aI278
aI277
aI278
aI278
aI279
aI279
aI279
aI279
aI279
aI280
aI280
aI280
aI280
aI281
aI281
aI281
aI281
aI281
aI281
aI281
aI282
aI281
aI282
aI282
aI282
aI282
aI282
aI282
aI282
aI282
aI282
aI282
aI282
aI282
aI282
aI283
aI282
aI282
aI282
aI282
aI282
aI282
aI282
aI281
aI281
aI281
aI281
aI281
aI281
aI281
aI281
aI281
aI280
aI280
aI280
aI280
aI279
aI279
aI279
aI278
aI278
aI278
aI277
aI276
aI276
aI276
aI275
aI275
aI274
aI274
aI274
aI274
aI274
aI274
aI273
aI272
aI270
aI270
aI269
aI269
aI267
aI268
aI265
aI264
aI261
aI261
aI256
aI255
aI252
aI249
aI248
aI247
aI245
aI245
aI244
aI244
aI247
aI249
aI252
aI253
aI256
aI257
aI259
aI260
aI262
aI262
aI264
aI264
aI266
aI266
aI268
aI269
aI270
aI271
aI272
aI273
aI275
aI277
aI279
aI280
aI283
aI284
aI287
aI288
aI292
aI293
aI298
aI299
aI281
aI286
aI296
aI299
aI302
aI306
aI298
aI293
aI0
assI12
(dp36
g2
(lp37
I291
aI319
aI319
aI319
aI319
aI319
aI319
aI319
aI319
aI319
aI319
aI319
aI319
aI319
aI261
aI243
aI237
aI237
aI235
aI234
aI178
aI176
aI173
aI171
aI154
aI153
aI150
aI149
aI147
aI146
aI144
aI143
aI141
aI140
aI138
aI137
aI136
aI135
aI132
aI132
aI131
aI131
aI129
aI129
aI127
aI126
aI125
aI124
aI122
aI121
aI121
aI121
aI119
aI118
aI118
aI117
aI116
aI116
aI115
aI115
aI114
aI114
aI113
aI113
aI112
aI112
aI112
aI111
aI111
aI111
aI110
aI109
aI108
aI108
aI108
aI107
aI108
aI108
aI107
aI107
aI106
aI106
aI107
aI107
aI107
aI106
aI105
aI104
aI104
aI104
aI104
aI105
aI105
aI104
aI104
aI104
aI104
aI104
aI105
aI105
aI105
aI105
aI106
aI105
aI107
aI107
aI106
aI106
aI107
aI107
aI106
aI106
aI107
aI108
aI108
aI108
aI108
aI108
aI108
aI109
aI109
aI108
aI109
aI109
aI110
aI110
aI110
aI111
aI111
aI112
aI111
aI111
aI113
aI113
aI113
aI113
aI113
aI113
aI116
aI116
aI116
aI116
aI117
aI117
aI118
aI118
aI119
aI120
aI121
aI121
aI122
aI121
aI122
aI122
aI121
aI121
aI122
aI122
aI123
aI123
aI123
aI121
aI123
aI125
aI122
aI124
aI125
aI124
aI124
aI125
aI126
aI126
aI128
aI126
aI131
aI128
aI130
aI132
aI131
aI131
aI134
aI135
aI136
aI136
aI135
aI135
aI136
aI136
aI136
aI136
aI138
aI134
aI136
aI139
aI140
aI140
aI139
aI138
aI139
aI136
aI138
aI138
aI136
aI135
aI134
aI133
aI129
aI130
aI126
aI127
aI129
aI127
aI120
aI118
aI113
aI116
aI121
aI120
aI126
aI118
aI114
aI118
aI116
aI115
aI106
aI94
aI95
aI88
aI100
aI104
aI93
aI97
aI91
aI91
aI95
aI98
aI99
aI97
aI104
aI103
aI92
aI93
aI319
asg4
(lp38
I126
aI0
aI0
aI0
aI0
aI0
aI0
aI0
aI0
aI0
aI0
aI0
aI0
aI0
aI23
aI68
aI98
aI99
aI102
aI102
aI179
aI182
aI186
aI188
aI190
aI218
aI221
aI222
aI224
aI224
aI226
aI227
aI229
aI230
aI232
aI233
aI235
aI236
aI237
aI238
aI240
aI242
aI244
aI245
aI246
aI247
aI249
aI250
aI251
aI252
aI254
aI254
aI256
aI257
aI257
aI258
aI259
aI259
aI260
aI261
aI262
aI262
aI263
aI264
aI265
aI265
aI266
aI266
aI267
aI267
aI268
aI268
aI268
aI269
aI268
aI268
aI268
aI268
aI269
aI269
aI269
aI269
aI269
aI269
aI270
aI269
aI269
aI269
aI270
aI269
aI269
aI269
aI270
aI270
aI269
aI269
aI269
aI269
aI270
aI270
aI270
aI270
aI271
aI271
aI271
aI271
aI273
aI272
aI271
aI271
aI271
aI271
aI271
aI272
aI271
aI271
aI271
aI272
aI272
aI274
aI274
aI275
aI271
aI271
aI270
aI271
aI271
aI278
aI272
aI272
aI272
aI271
aI270
aI270
aI272
aI272
aI272
aI272
aI272
aI272
aI272
aI275
aI287
aI283
aI283
aI281
aI276
aI269
aI278
aI271
aI280
aI281
aI276
aI278
aI287
aI288
aI286
aI284
aI281
aI282
aI277
aI275
aI288
aI288
aI273
aI272
aI283
aI287
aI272
aI269
aI281
aI281
aI284
aI284
aI281
aI287
aI280
aI275
aI270
aI275
aI260
aI267
aI259
aI256
aI265
aI269
aI263
aI261
aI268
aI257
aI254
aI254
aI254
aI257
aI267
aI278
aI275
aI267
aI254
aI276
aI256
aI256
aI257
aI262
aI259
aI259
aI259
aI258
aI259
aI260
aI259
aI259
aI260
aI261
aI261
aI261
aI262
aI262
aI265
aI265
aI267
aI268
aI268
aI267
aI272
aI280
aI274
aI271
aI270
aI268
aI268
aI269
aI275
aI274
aI276
aI272
aI274
aI274
aI274
aI273
aI282
aI280
aI0
assI13
(dp39
g2
(lp40
I319
aI319
aI319
aI319
aI319
aI319
aI319
aI319
aI319
aI319
aI319
aI319
aI319
aI319
aI319
aI319
aI319
aI319
aI319
aI319
aI319
aI319
aI319
aI319
aI319
aI319
aI319
aI319
aI319
aI319
aI319
aI319
aI319
aI265
aI226
aI225
aI188
aI186
aI143
aI142
aI137
aI136
aI132
aI131
aI129
aI128
aI125
aI124
aI122
aI121
aI118
aI117
aI116
aI115
aI115
aI114
aI112
aI111
aI109
aI109
aI108
aI108
aI107
aI110
aI106
aI109
aI110
aI109
aI108
aI108
aI108
aI108
aI109
aI110
aI108
aI108
aI109
aI108
aI107
aI108
aI108
aI107
aI105
aI105
aI103
aI102
aI102
aI102
aI102
aI101
aI100
aI100
aI100
aI100
aI100
aI100
aI97
aI97
aI97
aI97
aI98
aI98
aI99
aI98
aI99
aI99
aI99
aI99
aI96
aI96
aI97
aI98
aI98
aI97
aI97
aI97
aI98
aI99
aI100
aI100
aI100
aI100
aI100
aI100
aI100
aI100
aI102
aI102
aI104
aI104
aI102
aI102
aI102
aI102
aI102
aI101
aI99
aI99
aI100
aI100
aI100
aI99
aI99
aI99
aI97
aI97
aI98
aI98
aI98
aI97
aI97
aI97
aI95
aI96
aI98
aI98
aI97
aI97
aI99
aI100
aI101
aI102
aI102
aI103
aI104
aI104
aI105
aI106
aI106
aI107
aI107
aI108
aI109
aI110
aI111
aI112
aI112
aI112
aI112
aI113
aI115
aI117
aI117
aI118
aI119
aI120
aI121
aI119
aI120
aI119
aI120
aI121
aI120
aI119
aI120
aI119
aI116
aI117
aI116
aI116
aI118
aI117
aI118
aI118
aI118
aI118
aI119
aI119
aI119
aI119
aI119
aI120
aI120
aI120
aI120
aI120
aI120
aI120
aI120
aI120
aI120
aI120
aI120
aI121
aI120
aI120
aI121
aI120
aI122
aI123
aI123
aI124
aI123
aI123
aI123
aI123
aI123
aI124
aI122
aI118
aI123
aI122
aI319
asg4
(lp41
I126
aI0
aI0
aI0
aI0
aI0
aI0
aI0
aI0
aI0
aI0
aI0
aI0
aI0
aI0
aI0
aI0
aI0
aI0
aI0
aI0
aI0
aI0
aI0
aI0
aI0
aI0
aI0
aI0
aI0
aI0
aI0
aI0
aI0
aI117
aI118
aI145
aI146
aI204
aI206
aI209
aI211
aI215
aI217
aI220
aI221
aI223
aI224
aI226
aI226
aI228
aI230
aI233
aI234
aI236
aI237
aI240
aI240
aI241
aI242
aI244
aI245
aI246
aI247
aI248
aI248
aI249
aI250
aI249
aI249
aI248
aI247
aI249
aI249
aI249
aI249
aI251
aI251
aI253
aI253
aI254
aI254
aI254
aI254
aI254
aI254
aI256
aI256
aI257
aI257
aI258
aI258
aI259
aI260
aI261
aI261
aI261
aI261
aI261
aI261
aI261
aI261
aI261
aI262
aI262
aI261
aI261
aI261
aI261
aI261
aI260
aI260
aI260
aI260
aI259
aI259
aI259
aI259
aI259
aI259
aI259
aI258
aI259
aI258
aI259
aI258
aI257
aI258
aI257
aI257
aI256
aI256
aI255
aI255
aI254
aI254
aI253
aI253
aI252
aI252
aI253
aI253
aI255
aI255
aI254
aI254
aI255
aI256
aI257
aI256
aI257
aI257
aI257
aI257
aI257
aI256
aI256
aI256
aI256
aI256
aI255
aI255
aI255
aI255
aI255
aI255
aI254
aI254
aI253
aI253
aI252
aI252
aI251
aI250
aI250
aI249
aI249
aI249
aI247
aI247
aI246
aI246
aI245
aI243
aI242
aI242
aI240
aI240
aI238
aI238
aI238
aI237
aI237
aI237
aI236
aI236
aI236
aI235
aI235
aI235
aI234
aI234
aI233
aI233
aI233
aI233
aI232
aI232
aI231
aI231
aI231
aI231
aI231
aI231
aI231
aI230
aI230
aI230
aI230
aI230
aI230
aI230
aI229
aI229
aI229
aI229
aI229
aI229
aI229
aI229
aI229
aI229
aI229
aI228
aI228
aI228
aI232
aI233
aI260
aI234
aI228
aI227
aI0
assI14
(dp42
g2
(lp43
I319
aI319
aI319
aI319
aI319
aI319
aI319
aI319
aI319
aI319
aI319
aI319
aI319
aI319
aI319
aI319
aI319
aI319
aI319
aI319
aI319
aI282
aI283
aI283
aI284
aI213
aI159
aI166
aI153
aI152
aI100
aI98
aI95
aI94
aI92
aI91
aI89
aI88
aI86
aI86
aI82
aI82
aI81
aI79
aI78
aI77
aI76
aI75
aI73
aI72
aI72
aI70
aI70
aI69
aI68
aI68
aI66
aI66
aI65
aI64
aI63
aI63
aI62
aI62
aI61
aI61
aI60
aI59
aI59
aI59
aI58
aI58
aI58
aI57
aI57
aI56
aI56
aI55
aI55
aI55
aI55
aI55
aI54
aI54
aI53
aI53
aI53
aI53
aI52
aI52
aI52
aI52
aI52
aI52
aI51
aI51
aI51
aI51
aI51
aI51
aI51
aI51
aI51
aI52
aI52
aI52
aI52
aI52
aI52
aI52
aI52
aI52
aI53
aI53
aI53
aI53
aI54
aI54
aI54
aI55
aI55
aI55
aI55
aI55
aI56
aI56
aI57
aI56
aI57
aI57
aI58
aI58
aI58
aI58
aI57
aI57
aI57
aI57
aI56
aI57
aI56
aI57
aI57
aI57
aI58
aI58
aI59
aI59
aI60
aI59
aI61
aI61
aI62
aI62
aI62
aI62
aI62
aI62
aI63
aI63
aI63
aI63
aI64
aI64
aI64
aI62
aI66
aI66
aI67
aI68
aI68
aI68
aI69
aI70
aI71
aI73
aI74
aI74
aI73
aI73
aI76
aI75
aI76
aI77
aI77
aI77
aI78
aI78
aI79
aI79
aI79
aI79
aI79
aI80
aI80
aI79
aI79
aI80
aI80
aI81
aI82
aI82
aI83
aI83
aI83
aI83
aI83
aI83
aI82
aI82
aI81
aI80
aI80
aI79
aI79
aI79
aI79
aI78
aI78
aI78
aI78
aI78
aI78
aI80
aI80
aI80
aI81
aI81
aI81
aI81
aI82
aI82
aI82
aI82
aI83
aI84
aI85
aI85
aI86
aI86
aI87
aI87
aI319
asg4
(lp44
I126
aI0
aI0
aI0
aI0
aI0
aI0
aI0
aI0
aI0
aI0
aI0
aI0
aI0
aI0
aI0
aI0
aI0
aI0
aI0
aI0
aI4
aI4
aI5
aI5
aI59
aI108
aI111
aI115
aI115
aI152
aI154
aI156
aI157
aI159
aI159
aI161
aI165
aI169
aI173
aI177
aI178
aI184
aI185
aI189
aI190
aI193
aI194
aI196
aI197
aI199
aI199
aI201
aI202
aI203
aI204
aI206
aI205
aI207
aI207
aI208
aI209
aI210
aI210
aI211
aI211
aI212
aI212
aI213
aI213
aI214
aI214
aI215
aI215
aI215
aI215
aI216
aI216
aI217
aI217
aI217
aI217
aI217
aI217
aI217
aI217
aI217
aI217
aI217
aI217
aI217
aI217
aI217
aI217
aI217
aI217
aI217
aI217
aI217
aI217
aI216
aI216
aI216
aI216
aI216
aI216
aI216
aI216
aI216
aI215
aI215
aI215
aI214
aI214
aI214
aI214
aI214
aI213
aI213
aI213
aI213
aI213
aI212
aI212
aI212
aI212
aI213
aI213
aI211
aI211
aI210
aI210
aI209
aI209
aI209
aI210
aI210
aI210
aI211
aI211
aI212
aI212
aI211
aI210
aI211
aI210
aI212
aI211
aI209
aI209
aI208
aI208
aI208
aI208
aI207
aI207
aI207
aI207
aI207
aI207
aI206
aI206
aI205
aI205
aI204
aI204
aI203
aI202
aI201
aI200
aI199
aI199
aI197
aI197
aI195
aI195
aI195
aI194
aI192
aI191
aI192
aI192
aI191
aI191
aI191
aI191
aI190
aI190
aI189
aI189
aI189
aI189
aI188
aI188
aI187
aI187
aI186
aI186
aI185
aI185
aI184
aI184
aI183
aI183
aI182
aI182
aI182
aI182
aI182
aI182
aI181
aI181
aI181
aI181
aI181
aI181
aI181
aI181
aI181
aI181
aI181
aI181
aI181
aI180
aI181
aI181
aI180
aI180
aI181
aI180
aI180
aI180
aI180
aI180
aI179
aI179
aI178
aI178
aI178
aI177
aI176
aI176
aI0
assI15
(dp45
g2
(lp46
I291
aI319
aI319
aI319
aI319
aI319
aI257
aI256
aI255
aI254
aI251
aI251
aI250
aI250
aI249
aI248
aI247
aI247
aI245
aI245
aI243
aI206
aI182
aI163
aI157
aI155
aI152
aI124
aI122
aI122
aI125
aI120
aI117
aI114
aI111
aI111
aI108
aI107
aI106
aI103
aI103
aI103
aI98
aI98
aI98
aI98
aI99
aI98
aI96
aI96
aI95
aI95
aI94
aI95
aI93
aI91
aI91
aI91
aI91
aI92
aI91
aI93
aI91
aI91
aI91
aI92
aI89
aI89
aI89
aI89
aI89
aI89
aI91
aI91
aI91
aI89
aI88
aI88
aI88
aI87
aI89
aI90
aI90
aI90
aI92
aI92
aI92
aI91
aI90
aI90
aI90
aI90
aI90
aI90
aI90
aI89
aI90
aI91
aI91
aI91
aI91
aI93
aI92
aI92
aI92
aI91
aI92
aI92
aI93
aI93
aI92
aI94
aI93
aI93
aI93
aI93
aI91
aI92
aI92
aI90
aI90
aI90
aI90
aI91
aI92
aI93
aI93
aI91
aI91
aI90
aI92
aI91
aI93
aI93
aI93
aI92
aI92
aI90
aI91
aI92
aI92
aI92
aI93
aI93
aI94
aI95
aI93
aI94
aI93
aI93
aI96
aI94
aI95
aI94
aI95
aI96
aI95
aI97
aI96
aI97
aI98
aI98
aI98
aI98
aI100
aI100
aI101
aI101
aI101
aI102
aI102
aI102
aI103
aI104
aI105
aI107
aI107
aI106
aI108
aI109
aI108
aI108
aI109
aI110
aI110
aI110
aI109
aI110
aI110
aI110
aI110
aI110
aI109
aI110
aI112
aI113
aI112
aI112
aI111
aI109
aI109
aI105
aI111
aI111
aI111
aI111
aI111
aI111
aI109
aI110
aI109
aI109
aI109
aI109
aI107
aI106
aI107
aI107
aI107
aI106
aI106
aI105
aI106
aI105
aI104
aI102
aI103
aI102
aI100
aI99
aI98
aI97
aI96
aI96
aI94
aI93
aI92
aI91
aI90
aI91
aI89
aI88
aI319
asg4
(lp47
I126
aI0
aI0
aI0
aI0
aI0
aI66
aI69
aI70
aI74
aI75
aI75
aI77
aI77
aI77
aI79
aI80
aI80
aI81
aI81
aI86
aI86
aI167
aI168
aI197
aI198
aI202
aI212
aI216
aI217
aI220
aI221
aI223
aI223
aI225
aI226
aI228
aI228
aI230
aI230
aI231
aI231
aI232
aI233
aI234
aI234
aI235
aI235
aI236
aI236
aI236
aI236
aI237
aI237
aI237
aI238
aI238
aI238
aI238
aI238
aI239
aI239
aI238
aI239
aI239
aI239
aI239
aI239
aI239
aI239
aI239
aI239
aI239
aI239
aI239
aI239
aI239
aI239
aI239
aI239
aI239
aI239
aI239
aI239
aI239
aI239
aI239
aI239
aI239
aI239
aI239
aI239
aI239
aI239
aI239
aI239
aI239
aI239
aI239
aI239
aI239
aI239
aI239
aI239
aI239
aI239
aI239
aI239
aI240
aI240
aI240
aI240
aI240
aI240
aI240
aI241
aI241
aI241
aI240
aI240
aI241
aI241
aI242
aI242
aI242
aI242
aI243
aI243
aI242
aI242
aI243
aI243
aI242
aI242
aI243
aI243
aI243
aI243
aI243
aI244
aI242
aI242
aI242
aI242
aI242
aI241
aI242
aI242
aI243
aI243
aI242
aI242
aI242
aI241
aI241
aI242
aI241
aI241
aI239
aI239
aI237
aI236
aI236
aI236
aI236
aI237
aI235
aI234
aI234
aI234
aI232
aI232
aI231
aI231
aI229
aI228
aI228
aI228
aI227
aI227
aI226
aI226
aI225
aI225
aI225
aI225
aI224
aI224
aI223
aI223
aI222
aI222
aI222
aI222
aI222
aI222
aI226
aI232
aI223
aI223
aI222
aI222
aI223
aI224
aI222
aI225
aI224
aI222
aI224
aI231
aI226
aI225
aI225
aI225
aI239
aI227
aI227
aI227
aI228
aI228
aI228
aI229
aI231
aI231
aI231
aI232
aI234
aI235
aI236
aI237
aI237
aI237
aI251
aI243
aI254
aI243
aI251
aI253
aI245
aI246
aI262
aI260
aI0
ass.