(dp0
I1
(lp1
F0.01784654979583775
aF0.029212617983220987
aF0.06581817427089272
aF0.04804674344617252
aF0.056431105403160244
aF0.07445823516555665
aF0.06289431558576701
aF0.053195547947515444
aF0.04508398218609954
aF0.0513245886613997
aF0.05501956396839012
aF0.05404647695352015
aF0.06202873648064097
aF0.05826949665690982
aF0.05627790274760455
aF0.04404810541754404
aF0.04144277517455229
aF0.030822786560336768
aF0.02069640799451579
aF0.01717305030797331
aF0.011216524521811044
aF0.009192527470471487
aF0.006891932585924185
aF0.005475675264440031
aF0.023086177449742878
asI2
(lp2
F0.11595306935296705
aF0.05699158897305615
aF0.04085031545974185
aF0.03955384095120236
aF0.06273905349292216
aF0.0612652466627869
aF0.054754076482724734
aF0.059857424501884894
aF0.050253100504725375
aF0.05038380079418878
aF0.05165424674425079
aF0.04126750987742967
aF0.04065708386060065
aF0.03255347282983771
aF0.02886585054823875
aF0.02654994807140838
aF0.03420254091381267
aF0.02926916412774528
aF0.018090925571592927
aF0.012223573248432124
aF0.006661507261777861
aF0.0027708462249907595
aF0.0011638887269295806
aF0.0004961555021598867
aF0.08097176931459274
asI3
(lp3
F0.13562902068479699
aF0.10204607683249758
aF0.08387843136668965
aF0.07244966967687728
aF0.06412137158938905
aF0.04829816584750704
aF0.037383006574695385
aF0.04584580080375535
aF0.04641485540930595
aF0.0529802956120462
aF0.04597049627689958
aF0.033045124432914526
aF0.030720152650708377
aF0.02185475067757129
aF0.01775011840699998
aF0.01179855162808212
aF0.010740063329896177
aF0.009403609284458943
aF0.008515537512583377
aF0.009132597054492372
aF0.008010916871918856
aF0.007831497399677312
aF0.00752205476929432
aF0.004428660808523159
aF0.08422917449841914
asI4
(lp4
F0.10783048496576414
aF0.06339026850649555
aF0.06689764774534386
aF0.05004617464286501
aF0.05129279758371162
aF0.06294209838025515
aF0.059190728442007054
aF0.07247799006465631
aF0.06400949490454635
aF0.07395902033724679
aF0.06132547831549091
aF0.043267930530669796
aF0.03148029601613087
aF0.017505976697290808
aF0.012121345802916045
aF0.006851630769347692
aF0.00642490232549584
aF0.005461727036407286
aF0.004076482090732977
aF0.004035522049681139
aF0.002961821748441911
aF0.002220026419824696
aF0.0016870950039313498
aF0.001262394471346071
aF0.12728066514940078
asI5
(lp5
F0.01139604146746204
aF0.02651025782042264
aF0.03180970206707234
aF0.02791857012417929
aF0.05007336190996363
aF0.08304799878237272
aF0.09005510284955262
aF0.11463443455556797
aF0.09942602919887138
aF0.09493243864007105
aF0.07943768224939218
aF0.052842467139989774
aF0.04628282833632294
aF0.03267772067158895
aF0.02875507516907856
aF0.02409484206361652
aF0.029376416823346775
aF0.027820324295488773
aF0.016871247805965137
aF0.014432997609592714
aF0.005450463245700597
aF0.002179952891225607
aF0.0006066872560723559
aF0.0003435281907485654
aF0.009023828836334822
asI6
(lp6
F0.08758184001450953
aF0.059332089502400584
aF0.06191466708648788
aF0.05061682110482376
aF0.05256093147926507
aF0.06425509546930858
aF0.0720708416377108
aF0.06843618455061394
aF0.05105940240161397
aF0.04005128619036797
aF0.028983444489901797
aF0.022879259646267674
aF0.02335389208884443
aF0.02407632783604602
aF0.025315560775229694
aF0.017414986692852127
aF0.018645963538119932
aF0.02001474200558202
aF0.01815146371295544
aF0.015239057130312109
aF0.009568062233640873
aF0.0058448937661216335
aF0.003188876784385778
aF0.0018704886222881472
aF0.15757382124035027
asI7
(lp7
F0.1612977240866445
aF0.13532382278732624
aF0.10276114683759682
aF0.06750542629990461
aF0.062020821034464976
aF0.05158588286472574
aF0.04428645936434224
aF0.051565341191488846
aF0.047950401546358254
aF0.04699230874871371
aF0.035453682941366596
aF0.023646885653017688
aF0.019943296111758196
aF0.013231987445634879
aF0.011694372821131975
aF0.008944282969258076
aF0.008515309165245117
aF0.007878682583923794
aF0.0061658562170470756
aF0.0056620153997984975
aF0.0035469675592714202
aF0.003367383630497539
aF0.0021225805841895468
aF0.0015183731879896078
aF0.077018988968304
asI8
(lp8
F0.10082050631957373
aF0.06685043245012509
aF0.06286774194099799
aF0.053842381608584775
aF0.05131445553194872
aF0.05184453269729887
aF0.04865930865170891
aF0.06097929962503025
aF0.06406379591826881
aF0.06804572525440318
aF0.06158779801603974
aF0.040801600702731484
aF0.03336210187068088
aF0.027704324557282226
aF0.022318822940802528
aF0.017636443267196072
aF0.01832356091214827
aF0.01405319160839546
aF0.013321482726114036
aF0.013705515583447694
aF0.009830462734945363
aF0.008515067282281357
aF0.005740151672955257
aF0.004376805153502574
aF0.07943449097353672
asI9
(lp9
F0.11330499295285425
aF0.07414651291927848
aF0.06633217717165951
aF0.058439562394669436
aF0.049210143086190206
aF0.03826936936315025
aF0.03347482907061486
aF0.046024381835829936
aF0.053947127490281424
aF0.062971966379841
aF0.06158380225554002
aF0.048909122048334114
aF0.04179911168690517
aF0.031909147520914886
aF0.02575165532852449
aF0.020086086991286802
aF0.021194384164915092
aF0.021401984350091118
aF0.01768095769443377
aF0.01789156218257073
aF0.01669334758496469
aF0.016878245044683778
aF0.012753941817387248
aF0.00562762869288746
aF0.04371795997219127
asI10
(lp10
F0.17307239896121518
aF0.09079928588502607
aF0.07005895362526778
aF0.05831104898363206
aF0.060516508682569255
aF0.060427528796016684
aF0.04899254150721644
aF0.05168543600592428
aF0.04539248473031527
aF0.045542494127540765
aF0.036338217629666596
aF0.026977784840368474
aF0.025025102001768475
aF0.02152931918161949
aF0.023125990218150736
aF0.017373925593865233
aF0.015277106650834135
aF0.012795491805352886
aF0.00965064945944625
aF0.008496550759003369
aF0.0038646172380548704
aF0.0030457586319369563
aF0.0016692195447122608
aF0.0010827727169609289
aF0.08894881242353557
asI11
(lp11
F0.16631361476119547
aF0.10541496744346586
aF0.07853050400053477
aF0.0549415146232433
aF0.04639994241621628
aF0.04567130158641907
aF0.04344007307691332
aF0.039853078022805306
aF0.03014627311042706
aF0.03321287903225571
aF0.033630418106903634
aF0.03003370697328825
aF0.033480135549477416
aF0.029240510525540338
aF0.029149800264734377
aF0.022262996043411677
aF0.020604956386082385
aF0.015457557286010653
aF0.011280919197290948
aF0.009493371351635997
aF0.00644461469689335
aF0.005578898458430261
aF0.004776788614935998
aF0.0041779523726049594
aF0.10046322609928357
asI12
(lp12
F0.05170685457153147
aF0.0578698602913792
aF0.06505948236915413
aF0.05387314967292247
aF0.06697417947633062
aF0.06990787146856255
aF0.06609392854433706
aF0.06852007994058755
aF0.05490554648071699
aF0.061908562057270196
aF0.05664330706633646
aF0.0449244757400241
aF0.0434782616697559
aF0.03807669703758462
aF0.041525903046774705
aF0.03633292516646177
aF0.0347176543938927
aF0.024255563155733243
aF0.0173624463144063
aF0.014162216553305289
aF0.007991940595148047
aF0.00460891310900423
aF0.002326230857819471
aF0.0013488956703806014
aF0.015425054750580359
asI13
(lp13
F0.1503529377224149
aF0.09866917911601185
aF0.06650142017867514
aF0.0568861061143002
aF0.08441259279648149
aF0.09929076762060438
aF0.07262694329465734
aF0.06379217822681031
aF0.052016475954662425
aF0.0481347841951714
aF0.040514914650529435
aF0.027390712509208787
aF0.018444304392143816
aF0.012264680121131464
aF0.011852296880278605
aF0.0087665777481107
aF0.006752247104734221
aF0.00466842694150817
aF0.002524187618515974
aF0.0018913500667772187
aF0.0014424264581160526
aF0.0012378706334571577
aF0.0010574517915771379
aF0.0009145724995747155
aF0.06759459536454711
asI14
(lp14
F0.1362995048955104
aF0.04119686708003262
aF0.03749139979720563
aF0.04464471151209119
aF0.055467732802190556
aF0.0687160315814156
aF0.08359424072787311
aF0.08723504462192627
aF0.06934509362281563
aF0.06704694260314198
aF0.05398218542642282
aF0.03591620252199892
aF0.03535579416780724
aF0.027551738057111565
aF0.020528970035532376
aF0.011903247943972264
aF0.010474930436300168
aF0.007484798739882765
aF0.0040313493129211595
aF0.002096105993580427
aF0.0011876607316638795
aF0.000767174605241624
aF0.0006518814950236095
aF0.0005493001690922554
aF0.09648109111924595
asI15
(lp15
F0.10848465858803025
aF0.06394429378319354
aF0.06829552407957633
aF0.04800747225600664
aF0.04537526605708933
aF0.04979476964222127
aF0.052945221703079234
aF0.06713420115749526
aF0.05314199130250918
aF0.05408107048833527
aF0.046229364793470513
aF0.034455026703572915
aF0.03454477898682174
aF0.028663098312307934
aF0.02789683210555699
aF0.016844408453036842
aF0.015865255030829233
aF0.013703159689430068
aF0.013999661700081791
aF0.016221696473556736
aF0.011676879270898707
aF0.010569774250458722
aF0.005483455040780137
aF0.0024611862538621242
aF0.11018095387779926
as.